target datalayout = "e-m:e-p270:32:32-p271:32:32-p272:64:64-i64:64-i128:128-f80:128-n8:16:32:64-S128"
target triple = "x86_64-pc-linux-gnu"

%struct.H5LT_file_image_ud_t = type { ptr, i64, ptr, i64, i32, ptr, i64, i32, i32, i32 }

; Function Attrs: nounwind uwtable
define internal ptr @image_memcpy(ptr noundef %0, ptr noundef %1, i64 noundef %2, i32 noundef %3, ptr noundef %4) #0 {
  %6 = alloca ptr, align 8
  %7 = alloca ptr, align 8
  %8 = alloca ptr, align 8
  %9 = alloca i64, align 8
  %10 = alloca i32, align 4
  %11 = alloca ptr, align 8
  %12 = alloca ptr, align 8
  %13 = alloca i32, align 4
  store ptr %0, ptr %7, align 8, !tbaa !14
  store ptr %1, ptr %8, align 8, !tbaa !14
  store i64 %2, ptr %9, align 8, !tbaa !3
  store i32 %3, ptr %10, align 4, !tbaa !10
  store ptr %4, ptr %11, align 8, !tbaa !14
  call void @llvm.lifetime.start.p0(i64 8, ptr %12) #11
  %14 = load ptr, ptr %11, align 8, !tbaa !14
  store ptr %14, ptr %12, align 8, !tbaa !14
  %15 = load ptr, ptr %12, align 8, !tbaa !14
  %16 = getelementptr inbounds nuw %struct.H5LT_file_image_ud_t, ptr %15, i32 0, i32 8
  %17 = load i32, ptr %16, align 4, !tbaa !39
  %18 = and i32 %17, 2
  %19 = icmp ne i32 %18, 0
  br i1 %19, label %21, label %20

20:                                               ; preds = %5
  br label %132

21:                                               ; preds = %5
  %22 = load i32, ptr %10, align 4, !tbaa !10
  switch i32 %22, label %129 [
    i32 1, label %23
    i32 2, label %58
    i32 3, label %86
    i32 5, label %87
    i32 0, label %128
    i32 4, label %128
    i32 6, label %128
    i32 7, label %128
  ]

23:                                               ; preds = %21
  %24 = load ptr, ptr %7, align 8, !tbaa !14
  %25 = load ptr, ptr %12, align 8, !tbaa !14
  %26 = getelementptr inbounds nuw %struct.H5LT_file_image_ud_t, ptr %25, i32 0, i32 2
  %27 = load ptr, ptr %26, align 8, !tbaa !33
  %28 = icmp ne ptr %24, %27
  br i1 %28, label %29, label %30

29:                                               ; preds = %23
  br label %132

30:                                               ; preds = %23
  %31 = load ptr, ptr %8, align 8, !tbaa !14
  %32 = load ptr, ptr %12, align 8, !tbaa !14
  %33 = getelementptr inbounds nuw %struct.H5LT_file_image_ud_t, ptr %32, i32 0, i32 0
  %34 = load ptr, ptr %33, align 8, !tbaa !30
  %35 = icmp ne ptr %31, %34
  br i1 %35, label %36, label %37

36:                                               ; preds = %30
  br label %132

37:                                               ; preds = %30
  %38 = load i64, ptr %9, align 8, !tbaa !3
  %39 = load ptr, ptr %12, align 8, !tbaa !14
  %40 = getelementptr inbounds nuw %struct.H5LT_file_image_ud_t, ptr %39, i32 0, i32 3
  %41 = load i64, ptr %40, align 8, !tbaa !34
  %42 = icmp ne i64 %38, %41
  br i1 %42, label %43, label %44

43:                                               ; preds = %37
  br label %132

44:                                               ; preds = %37
  %45 = load i64, ptr %9, align 8, !tbaa !3
  %46 = load ptr, ptr %12, align 8, !tbaa !14
  %47 = getelementptr inbounds nuw %struct.H5LT_file_image_ud_t, ptr %46, i32 0, i32 1
  %48 = load i64, ptr %47, align 8, !tbaa !32
  %49 = icmp ne i64 %45, %48
  br i1 %49, label %50, label %51

50:                                               ; preds = %44
  br label %132

51:                                               ; preds = %44
  %52 = load ptr, ptr %12, align 8, !tbaa !14
  %53 = getelementptr inbounds nuw %struct.H5LT_file_image_ud_t, ptr %52, i32 0, i32 4
  %54 = load i32, ptr %53, align 8, !tbaa !35
  %55 = icmp eq i32 %54, 0
  br i1 %55, label %56, label %57

56:                                               ; preds = %51
  br label %132

57:                                               ; preds = %51
  br label %130

58:                                               ; preds = %21
  %59 = load ptr, ptr %7, align 8, !tbaa !14
  %60 = load ptr, ptr %12, align 8, !tbaa !14
  %61 = getelementptr inbounds nuw %struct.H5LT_file_image_ud_t, ptr %60, i32 0, i32 2
  %62 = load ptr, ptr %61, align 8, !tbaa !33
  %63 = icmp ne ptr %59, %62
  br i1 %63, label %64, label %65

64:                                               ; preds = %58
  br label %132

65:                                               ; preds = %58
  %66 = load ptr, ptr %8, align 8, !tbaa !14
  %67 = load ptr, ptr %12, align 8, !tbaa !14
  %68 = getelementptr inbounds nuw %struct.H5LT_file_image_ud_t, ptr %67, i32 0, i32 2
  %69 = load ptr, ptr %68, align 8, !tbaa !33
  %70 = icmp ne ptr %66, %69
  br i1 %70, label %71, label %72

71:                                               ; preds = %65
  br label %132

72:                                               ; preds = %65
  %73 = load i64, ptr %9, align 8, !tbaa !3
  %74 = load ptr, ptr %12, align 8, !tbaa !14
  %75 = getelementptr inbounds nuw %struct.H5LT_file_image_ud_t, ptr %74, i32 0, i32 3
  %76 = load i64, ptr %75, align 8, !tbaa !34
  %77 = icmp ne i64 %73, %76
  br i1 %77, label %78, label %79

78:                                               ; preds = %72
  br label %132

79:                                               ; preds = %72
  %80 = load ptr, ptr %12, align 8, !tbaa !14
  %81 = getelementptr inbounds nuw %struct.H5LT_file_image_ud_t, ptr %80, i32 0, i32 4
  %82 = load i32, ptr %81, align 8, !tbaa !35
  %83 = icmp slt i32 %82, 2
  br i1 %83, label %84, label %85

84:                                               ; preds = %79
  br label %132

85:                                               ; preds = %79
  br label %130

86:                                               ; preds = %21
  br label %132

87:                                               ; preds = %21
  %88 = load ptr, ptr %7, align 8, !tbaa !14
  %89 = load ptr, ptr %12, align 8, !tbaa !14
  %90 = getelementptr inbounds nuw %struct.H5LT_file_image_ud_t, ptr %89, i32 0, i32 5
  %91 = load ptr, ptr %90, align 8, !tbaa !36
  %92 = icmp ne ptr %88, %91
  br i1 %92, label %93, label %94

93:                                               ; preds = %87
  br label %132

94:                                               ; preds = %87
  %95 = load ptr, ptr %8, align 8, !tbaa !14
  %96 = load ptr, ptr %12, align 8, !tbaa !14
  %97 = getelementptr inbounds nuw %struct.H5LT_file_image_ud_t, ptr %96, i32 0, i32 2
  %98 = load ptr, ptr %97, align 8, !tbaa !33
  %99 = icmp ne ptr %95, %98
  br i1 %99, label %100, label %101

100:                                              ; preds = %94
  br label %132

101:                                              ; preds = %94
  %102 = load i64, ptr %9, align 8, !tbaa !3
  %103 = load ptr, ptr %12, align 8, !tbaa !14
  %104 = getelementptr inbounds nuw %struct.H5LT_file_image_ud_t, ptr %103, i32 0, i32 6
  %105 = load i64, ptr %104, align 8, !tbaa !37
  %106 = icmp ne i64 %102, %105
  br i1 %106, label %107, label %108

107:                                              ; preds = %101
  br label %132

108:                                              ; preds = %101
  %109 = load i64, ptr %9, align 8, !tbaa !3
  %110 = load ptr, ptr %12, align 8, !tbaa !14
  %111 = getelementptr inbounds nuw %struct.H5LT_file_image_ud_t, ptr %110, i32 0, i32 3
  %112 = load i64, ptr %111, align 8, !tbaa !34
  %113 = icmp ne i64 %109, %112
  br i1 %113, label %114, label %115

114:                                              ; preds = %108
  br label %132

115:                                              ; preds = %108
  %116 = load ptr, ptr %12, align 8, !tbaa !14
  %117 = getelementptr inbounds nuw %struct.H5LT_file_image_ud_t, ptr %116, i32 0, i32 4
  %118 = load i32, ptr %117, align 8, !tbaa !35
  %119 = icmp eq i32 %118, 0
  br i1 %119, label %120, label %121

120:                                              ; preds = %115
  br label %132

121:                                              ; preds = %115
  %122 = load ptr, ptr %12, align 8, !tbaa !14
  %123 = getelementptr inbounds nuw %struct.H5LT_file_image_ud_t, ptr %122, i32 0, i32 7
  %124 = load i32, ptr %123, align 8, !tbaa !38
  %125 = icmp ne i32 %124, 1
  br i1 %125, label %126, label %127

126:                                              ; preds = %121
  br label %132

127:                                              ; preds = %121
  br label %130

128:                                              ; preds = %21, %21, %21, %21
  br label %129

129:                                              ; preds = %21, %128
  br label %132

130:                                              ; preds = %127, %85, %57
  %131 = load ptr, ptr %7, align 8, !tbaa !14
  store ptr %131, ptr %6, align 8
  store i32 1, ptr %13, align 4
  br label %133

132:                                              ; preds = %129, %126, %120, %114, %107, %100, %93, %86, %84, %78, %71, %64, %56, %50, %43, %36, %29, %20
  store ptr null, ptr %6, align 8
  store i32 1, ptr %13, align 4
  br label %133

133:                                              ; preds = %132, %130
  call void @llvm.lifetime.end.p0(i64 8, ptr %12) #11
  %134 = load ptr, ptr %6, align 8
  ret ptr %134
}