; Function Attrs: mustprogress nofree norecurse nosync nounwind willreturn memory(argmem: read) uwtable
define internal noundef ptr @image_memcpy(ptr noundef readnone captures(address, ret: address, provenance) %0, ptr noundef readnone captures(address) %1, i64 noundef %2, i32 noundef %3, ptr noundef readonly captures(none) %4) #5 {
  %6 = getelementptr inbounds nuw i8, ptr %4, i64 60
  %7 = load i32, ptr %6, align 4, !tbaa !20
  %8 = and i32 %7, 2
  %.not = icmp eq i32 %8, 0
  br i1 %.not, label %54, label %9

9:                                                ; preds = %5
  switch i32 %3, label %54 [
    i32 1, label %10
    i32 2, label %25
    i32 5, label %35
  ]

10:                                               ; preds = %9
  %11 = getelementptr inbounds nuw i8, ptr %4, i64 16
  %12 = load ptr, ptr %11, align 8, !tbaa !24
  %.not40 = icmp eq ptr %0, %12
  br i1 %.not40, label %13, label %54

13:                                               ; preds = %10
  %14 = load ptr, ptr %4, align 8, !tbaa !17
  %.not41 = icmp eq ptr %1, %14
  br i1 %.not41, label %15, label %54

15:                                               ; preds = %13
  %16 = getelementptr inbounds nuw i8, ptr %4, i64 24
  %17 = load i64, ptr %16, align 8, !tbaa !25
  %.not42 = icmp eq i64 %2, %17
  br i1 %.not42, label %18, label %54

18:                                               ; preds = %15
  %19 = getelementptr inbounds nuw i8, ptr %4, i64 8
  %20 = load i64, ptr %19, align 8, !tbaa !19
  %.not43 = icmp eq i64 %2, %20
  br i1 %.not43, label %21, label %54

21:                                               ; preds = %18
  %22 = getelementptr inbounds nuw i8, ptr %4, i64 32
  %23 = load i32, ptr %22, align 8, !tbaa !26
  %24 = icmp eq i32 %23, 0
  br i1 %24, label %54, label %55

25:                                               ; preds = %9
  %26 = getelementptr inbounds nuw i8, ptr %4, i64 16
  %27 = load ptr, ptr %26, align 8, !tbaa !24
  %.not37 = icmp eq ptr %0, %27
  %.not38 = icmp eq ptr %1, %27
  %or.cond = and i1 %.not37, %.not38
  br i1 %or.cond, label %28, label %54

28:                                               ; preds = %25
  %29 = getelementptr inbounds nuw i8, ptr %4, i64 24
  %30 = load i64, ptr %29, align 8, !tbaa !25
  %.not39 = icmp eq i64 %2, %30
  br i1 %.not39, label %31, label %54

31:                                               ; preds = %28
  %32 = getelementptr inbounds nuw i8, ptr %4, i64 32
  %33 = load i32, ptr %32, align 8, !tbaa !26
  %34 = icmp slt i32 %33, 2
  br i1 %34, label %54, label %55

35:                                               ; preds = %9
  %36 = getelementptr inbounds nuw i8, ptr %4, i64 40
  %37 = load ptr, ptr %36, align 8, !tbaa !27
  %.not32 = icmp eq ptr %0, %37
  br i1 %.not32, label %38, label %54

38:                                               ; preds = %35
  %39 = getelementptr inbounds nuw i8, ptr %4, i64 16
  %40 = load ptr, ptr %39, align 8, !tbaa !24
  %.not33 = icmp eq ptr %1, %40
  br i1 %.not33, label %41, label %54

41:                                               ; preds = %38
  %42 = getelementptr inbounds nuw i8, ptr %4, i64 48
  %43 = load i64, ptr %42, align 8, !tbaa !28
  %.not34 = icmp eq i64 %2, %43
  br i1 %.not34, label %44, label %54

44:                                               ; preds = %41
  %45 = getelementptr inbounds nuw i8, ptr %4, i64 24
  %46 = load i64, ptr %45, align 8, !tbaa !25
  %.not35 = icmp eq i64 %2, %46
  br i1 %.not35, label %47, label %54

47:                                               ; preds = %44
  %48 = getelementptr inbounds nuw i8, ptr %4, i64 32
  %49 = load i32, ptr %48, align 8, !tbaa !26
  %50 = icmp eq i32 %49, 0
  br i1 %50, label %54, label %51

51:                                               ; preds = %47
  %52 = getelementptr inbounds nuw i8, ptr %4, i64 56
  %53 = load i32, ptr %52, align 8, !tbaa !29
  %.not36 = icmp eq i32 %53, 1
  br i1 %.not36, label %55, label %54

54:                                               ; preds = %9, %51, %47, %44, %41, %38, %35, %31, %28, %25, %21, %18, %15, %13, %10, %5
  br label %55

55:                                               ; preds = %21, %31, %51, %54
  %.0 = phi ptr [ null, %54 ], [ %0, %51 ], [ %0, %31 ], [ %0, %21 ]
  ret ptr %.0
}